target datalayout = "e-m:e-p270:32:32-p271:32:32-p272:64:64-i64:64-i128:128-f80:128-n8:16:32:64-S128"
target triple = "x86_64-pc-linux-gnu"

%struct.PrintfTarget = type { ptr, ptr, ptr, ptr, i32, i8 }

; Function Attrs: nounwind uwtable
define internal void @flushbuffer(ptr noundef %0) #0 {
  %2 = alloca ptr, align 8
  %3 = alloca i64, align 8
  %4 = alloca i64, align 8
  store ptr %0, ptr %2, align 8
  call void @llvm.lifetime.start.p0(i64 8, ptr %3) #10
  %5 = load ptr, ptr %2, align 8
  %6 = getelementptr inbounds nuw %struct.PrintfTarget, ptr %5, i32 0, i32 0
  %7 = load ptr, ptr %6, align 8
  %8 = load ptr, ptr %2, align 8
  %9 = getelementptr inbounds nuw %struct.PrintfTarget, ptr %8, i32 0, i32 1
  %10 = load ptr, ptr %9, align 8
  %11 = ptrtoint ptr %7 to i64
  %12 = ptrtoint ptr %10 to i64
  %13 = sub i64 %11, %12
  store i64 %13, ptr %3, align 8
  %14 = load ptr, ptr %2, align 8
  %15 = getelementptr inbounds nuw %struct.PrintfTarget, ptr %14, i32 0, i32 5
  %16 = load i8, ptr %15, align 4, !range !3, !noundef !4
  %17 = trunc i8 %16 to i1
  br i1 %17, label %44, label %18

18:                                               ; preds = %1
  %19 = load i64, ptr %3, align 8
  %20 = icmp ugt i64 %19, 0
  br i1 %20, label %21, label %44

21:                                               ; preds = %18
  call void @llvm.lifetime.start.p0(i64 8, ptr %4) #10
  %22 = load ptr, ptr %2, align 8
  %23 = getelementptr inbounds nuw %struct.PrintfTarget, ptr %22, i32 0, i32 1
  %24 = load ptr, ptr %23, align 8
  %25 = load i64, ptr %3, align 8
  %26 = load ptr, ptr %2, align 8
  %27 = getelementptr inbounds nuw %struct.PrintfTarget, ptr %26, i32 0, i32 3
  %28 = load ptr, ptr %27, align 8
  %29 = call i64 @fwrite(ptr noundef %24, i64 noundef 1, i64 noundef %25, ptr noundef %28)
  store i64 %29, ptr %4, align 8
  %30 = load i64, ptr %4, align 8
  %31 = load ptr, ptr %2, align 8
  %32 = getelementptr inbounds nuw %struct.PrintfTarget, ptr %31, i32 0, i32 4
  %33 = load i32, ptr %32, align 8
  %34 = sext i32 %33 to i64
  %35 = add i64 %34, %30
  %36 = trunc i64 %35 to i32
  store i32 %36, ptr %32, align 8
  %37 = load i64, ptr %4, align 8
  %38 = load i64, ptr %3, align 8
  %39 = icmp ne i64 %37, %38
  br i1 %39, label %40, label %43

40:                                               ; preds = %21
  %41 = load ptr, ptr %2, align 8
  %42 = getelementptr inbounds nuw %struct.PrintfTarget, ptr %41, i32 0, i32 5
  store i8 1, ptr %42, align 4
  br label %43

43:                                               ; preds = %40, %21
  call void @llvm.lifetime.end.p0(i64 8, ptr %4) #10
  br label %44

44:                                               ; preds = %43, %18, %1
  %45 = load ptr, ptr %2, align 8
  %46 = getelementptr inbounds nuw %struct.PrintfTarget, ptr %45, i32 0, i32 1
  %47 = load ptr, ptr %46, align 8
  %48 = load ptr, ptr %2, align 8
  %49 = getelementptr inbounds nuw %struct.PrintfTarget, ptr %48, i32 0, i32 0
  store ptr %47, ptr %49, align 8
  call void @llvm.lifetime.end.p0(i64 8, ptr %3) #10
  ret void
}

; Function Attrs: nounwind uwtable
define internal void @dopr_outch(i32 noundef %0, ptr noundef %1) #0 {
  %3 = alloca i32, align 4
  %4 = alloca ptr, align 8
  store i32 %0, ptr %3, align 4
  store ptr %1, ptr %4, align 8
  %5 = load ptr, ptr %4, align 8
  %6 = getelementptr inbounds nuw %struct.PrintfTarget, ptr %5, i32 0, i32 2
  %7 = load ptr, ptr %6, align 8
  %8 = icmp ne ptr %7, null
  br i1 %8, label %9, label %29

9:                                                ; preds = %2
  %10 = load ptr, ptr %4, align 8
  %11 = getelementptr inbounds nuw %struct.PrintfTarget, ptr %10, i32 0, i32 0
  %12 = load ptr, ptr %11, align 8
  %13 = load ptr, ptr %4, align 8
  %14 = getelementptr inbounds nuw %struct.PrintfTarget, ptr %13, i32 0, i32 2
  %15 = load ptr, ptr %14, align 8
  %16 = icmp uge ptr %12, %15
  br i1 %16, label %17, label %29

17:                                               ; preds = %9
  %18 = load ptr, ptr %4, align 8
  %19 = getelementptr inbounds nuw %struct.PrintfTarget, ptr %18, i32 0, i32 3
  %20 = load ptr, ptr %19, align 8
  %21 = icmp eq ptr %20, null
  br i1 %21, label %22, label %27

22:                                               ; preds = %17
  %23 = load ptr, ptr %4, align 8
  %24 = getelementptr inbounds nuw %struct.PrintfTarget, ptr %23, i32 0, i32 4
  %25 = load i32, ptr %24, align 8
  %26 = add i32 %25, 1
  store i32 %26, ptr %24, align 8
  br label %36

27:                                               ; preds = %17
  %28 = load ptr, ptr %4, align 8
  call void @flushbuffer(ptr noundef %28)
  br label %29

29:                                               ; preds = %27, %9, %2
  %30 = load i32, ptr %3, align 4
  %31 = trunc i32 %30 to i8
  %32 = load ptr, ptr %4, align 8
  %33 = getelementptr inbounds nuw %struct.PrintfTarget, ptr %32, i32 0, i32 0
  %34 = load ptr, ptr %33, align 8
  %35 = getelementptr inbounds nuw i8, ptr %34, i32 1
  store ptr %35, ptr %33, align 8
  store i8 %31, ptr %34, align 1
  br label %36

36:                                               ; preds = %29, %22
  ret void
}

; Function Attrs: nounwind uwtable
define internal void @leading_pad(i32 noundef %0, i32 noundef %1, ptr noundef %2, ptr noundef %3) #0 {
  %5 = alloca i32, align 4
  %6 = alloca i32, align 4
  %7 = alloca ptr, align 8
  %8 = alloca ptr, align 8
  %9 = alloca i32, align 4
  store i32 %0, ptr %5, align 4
  store i32 %1, ptr %6, align 4
  store ptr %2, ptr %7, align 8
  store ptr %3, ptr %8, align 8
  call void @llvm.lifetime.start.p0(i64 4, ptr %9) #10
  %10 = load ptr, ptr %7, align 8
  %11 = load i32, ptr %10, align 4
  %12 = icmp sgt i32 %11, 0
  br i1 %12, label %13, label %36

13:                                               ; preds = %4
  %14 = load i32, ptr %5, align 4
  %15 = icmp ne i32 %14, 0
  br i1 %15, label %16, label %36

16:                                               ; preds = %13
  %17 = load i32, ptr %6, align 4
  %18 = icmp ne i32 %17, 0
  br i1 %18, label %19, label %25

19:                                               ; preds = %16
  %20 = load i32, ptr %6, align 4
  %21 = load ptr, ptr %8, align 8
  call void @dopr_outch(i32 noundef %20, ptr noundef %21)
  %22 = load ptr, ptr %7, align 8
  %23 = load i32, ptr %22, align 4
  %24 = add i32 %23, -1
  store i32 %24, ptr %22, align 4
  store i32 0, ptr %6, align 4
  br label %25

25:                                               ; preds = %19, %16
  %26 = load ptr, ptr %7, align 8
  %27 = load i32, ptr %26, align 4
  %28 = icmp sgt i32 %27, 0
  br i1 %28, label %29, label %35

29:                                               ; preds = %25
  %30 = load i32, ptr %5, align 4
  %31 = load ptr, ptr %7, align 8
  %32 = load i32, ptr %31, align 4
  %33 = load ptr, ptr %8, align 8
  call void @dopr_outchmulti(i32 noundef %30, i32 noundef %32, ptr noundef %33)
  %34 = load ptr, ptr %7, align 8
  store i32 0, ptr %34, align 4
  br label %35

35:                                               ; preds = %29, %25
  br label %36

36:                                               ; preds = %35, %13, %4
  %37 = load i32, ptr %6, align 4
  %38 = icmp ne i32 %37, 0
  %39 = zext i1 %38 to i32
  store i32 %39, ptr %9, align 4
  %40 = load ptr, ptr %7, align 8
  %41 = load i32, ptr %40, align 4
  %42 = load i32, ptr %9, align 4
  %43 = icmp sgt i32 %41, %42
  br i1 %43, label %44, label %52

44:                                               ; preds = %36
  %45 = load ptr, ptr %7, align 8
  %46 = load i32, ptr %45, align 4
  %47 = load i32, ptr %9, align 4
  %48 = sub i32 %46, %47
  %49 = load ptr, ptr %8, align 8
  call void @dopr_outchmulti(i32 noundef 32, i32 noundef %48, ptr noundef %49)
  %50 = load i32, ptr %9, align 4
  %51 = load ptr, ptr %7, align 8
  store i32 %50, ptr %51, align 4
  br label %52

52:                                               ; preds = %44, %36
  %53 = load i32, ptr %6, align 4
  %54 = icmp ne i32 %53, 0
  br i1 %54, label %55, label %75

55:                                               ; preds = %52
  %56 = load i32, ptr %6, align 4
  %57 = load ptr, ptr %8, align 8
  call void @dopr_outch(i32 noundef %56, ptr noundef %57)
  %58 = load ptr, ptr %7, align 8
  %59 = load i32, ptr %58, align 4
  %60 = icmp sgt i32 %59, 0
  br i1 %60, label %61, label %65

61:                                               ; preds = %55
  %62 = load ptr, ptr %7, align 8
  %63 = load i32, ptr %62, align 4
  %64 = add i32 %63, -1
  store i32 %64, ptr %62, align 4
  br label %74

65:                                               ; preds = %55
  %66 = load ptr, ptr %7, align 8
  %67 = load i32, ptr %66, align 4
  %68 = icmp slt i32 %67, 0
  br i1 %68, label %69, label %73

69:                                               ; preds = %65
  %70 = load ptr, ptr %7, align 8
  %71 = load i32, ptr %70, align 4
  %72 = add i32 %71, 1
  store i32 %72, ptr %70, align 4
  br label %73

73:                                               ; preds = %69, %65
  br label %74

74:                                               ; preds = %73, %61
  br label %75

75:                                               ; preds = %74, %52
  call void @llvm.lifetime.end.p0(i64 4, ptr %9) #10
  ret void
}