; Function Attrs: nofree nounwind uwtable
define internal fastcc void @leading_pad(i32 noundef range(i32 0, 49) %0, i32 noundef %1, ptr noundef nonnull captures(none) %2, ptr noundef nonnull captures(none) %3) unnamed_addr #4 {
  %5 = load i32, ptr %2, align 4
  %6 = icmp sgt i32 %5, 0
  %7 = icmp ne i32 %0, 0
  %or.cond = and i1 %7, %6
  br i1 %or.cond, label %8, label %46

8:                                                ; preds = %4
  %.not = icmp eq i32 %1, 0
  br i1 %.not, label %.thread44, label %9

9:                                                ; preds = %8
  %10 = getelementptr inbounds nuw i8, ptr %3, i64 16
  %11 = load ptr, ptr %10, align 8
  %.not.i = icmp eq ptr %11, null
  %.pre.i = load ptr, ptr %3, align 8
  %.not7.i = icmp ult ptr %.pre.i, %11
  %or.cond.i = select i1 %.not.i, i1 true, i1 %.not7.i
  br i1 %or.cond.i, label %38, label %12

12:                                               ; preds = %9
  %13 = getelementptr inbounds nuw i8, ptr %3, i64 24
  %14 = load ptr, ptr %13, align 8
  %15 = icmp eq ptr %14, null
  br i1 %15, label %16, label %20

16:                                               ; preds = %12
  %17 = getelementptr inbounds nuw i8, ptr %3, i64 32
  %18 = load i32, ptr %17, align 8
  %19 = add i32 %18, 1
  store i32 %19, ptr %17, align 8
  br label %thread-pre-split

20:                                               ; preds = %12
  %21 = getelementptr inbounds nuw i8, ptr %3, i64 8
  %22 = load ptr, ptr %21, align 8
  %23 = getelementptr inbounds nuw i8, ptr %3, i64 36
  %24 = load i8, ptr %23, align 4, !range !3, !noundef !4
  %25 = trunc nuw i8 %24 to i1
  %26 = icmp eq ptr %.pre.i, %22
  %or.cond.not.i.i = select i1 %25, i1 true, i1 %26
  br i1 %or.cond.not.i.i, label %flushbuffer.exit.i, label %27

27:                                               ; preds = %20
  %28 = ptrtoint ptr %22 to i64
  %29 = ptrtoint ptr %.pre.i to i64
  %30 = sub i64 %29, %28
  %31 = tail call i64 @fwrite(ptr noundef %22, i64 noundef 1, i64 noundef %30, ptr noundef nonnull %14)
  %32 = getelementptr inbounds nuw i8, ptr %3, i64 32
  %33 = load i32, ptr %32, align 8
  %34 = trunc i64 %31 to i32
  %35 = add i32 %33, %34
  store i32 %35, ptr %32, align 8
  %.not.i.i = icmp eq i64 %31, %30
  br i1 %.not.i.i, label %flushbuffer.exit.i, label %36

36:                                               ; preds = %27
  store i8 1, ptr %23, align 4
  br label %flushbuffer.exit.i

flushbuffer.exit.i:                               ; preds = %36, %27, %20
  %37 = load ptr, ptr %21, align 8
  br label %38

38:                                               ; preds = %flushbuffer.exit.i, %9
  %39 = phi ptr [ %37, %flushbuffer.exit.i ], [ %.pre.i, %9 ]
  %40 = trunc i32 %1 to i8
  %41 = getelementptr inbounds nuw i8, ptr %39, i64 1
  store ptr %41, ptr %3, align 8
  store i8 %40, ptr %39, align 1
  br label %thread-pre-split

thread-pre-split:                                 ; preds = %38, %16
  %42 = load i32, ptr %2, align 4
  %43 = add i32 %42, -1
  store i32 %43, ptr %2, align 4
  %44 = icmp sgt i32 %43, 0
  br i1 %44, label %.thread44, label %46

.thread44:                                        ; preds = %8, %thread-pre-split
  %45 = phi i32 [ %43, %thread-pre-split ], [ %5, %8 ]
  tail call fastcc void @dopr_outchmulti(i32 noundef %0, i32 noundef %45, ptr noundef %3)
  br label %.sink.split

46:                                               ; preds = %thread-pre-split, %4
  %47 = phi i32 [ %43, %thread-pre-split ], [ %5, %4 ]
  %.0 = phi i32 [ 0, %thread-pre-split ], [ %1, %4 ]
  %48 = icmp ne i32 %.0, 0
  %49 = zext i1 %48 to i32
  %50 = icmp sgt i32 %47, %49
  br i1 %50, label %51, label %53

51:                                               ; preds = %46
  %52 = sub nuw nsw i32 %47, %49
  tail call fastcc void @dopr_outchmulti(i32 noundef 32, i32 noundef %52, ptr noundef %3)
  store i32 %49, ptr %2, align 4
  br i1 %48, label %54, label %95

53:                                               ; preds = %46
  br i1 %48, label %54, label %95

54:                                               ; preds = %51, %53
  %55 = getelementptr inbounds nuw i8, ptr %3, i64 16
  %56 = load ptr, ptr %55, align 8
  %.not.i34 = icmp eq ptr %56, null
  %.pre.i35 = load ptr, ptr %3, align 8
  %.not7.i36 = icmp ult ptr %.pre.i35, %56
  %or.cond.i37 = select i1 %.not.i34, i1 true, i1 %.not7.i36
  br i1 %or.cond.i37, label %83, label %57

57:                                               ; preds = %54
  %58 = getelementptr inbounds nuw i8, ptr %3, i64 24
  %59 = load ptr, ptr %58, align 8
  %60 = icmp eq ptr %59, null
  br i1 %60, label %61, label %65

61:                                               ; preds = %57
  %62 = getelementptr inbounds nuw i8, ptr %3, i64 32
  %63 = load i32, ptr %62, align 8
  %64 = add i32 %63, 1
  store i32 %64, ptr %62, align 8
  br label %dopr_outch.exit41

65:                                               ; preds = %57
  %66 = getelementptr inbounds nuw i8, ptr %3, i64 8
  %67 = load ptr, ptr %66, align 8
  %68 = getelementptr inbounds nuw i8, ptr %3, i64 36
  %69 = load i8, ptr %68, align 4, !range !3, !noundef !4
  %70 = trunc nuw i8 %69 to i1
  %71 = icmp eq ptr %.pre.i35, %67
  %or.cond.not.i.i38 = select i1 %70, i1 true, i1 %71
  br i1 %or.cond.not.i.i38, label %flushbuffer.exit.i40, label %72

72:                                               ; preds = %65
  %73 = ptrtoint ptr %67 to i64
  %74 = ptrtoint ptr %.pre.i35 to i64
  %75 = sub i64 %74, %73
  %76 = tail call i64 @fwrite(ptr noundef %67, i64 noundef 1, i64 noundef %75, ptr noundef nonnull %59)
  %77 = getelementptr inbounds nuw i8, ptr %3, i64 32
  %78 = load i32, ptr %77, align 8
  %79 = trunc i64 %76 to i32
  %80 = add i32 %78, %79
  store i32 %80, ptr %77, align 8
  %.not.i.i39 = icmp eq i64 %76, %75
  br i1 %.not.i.i39, label %flushbuffer.exit.i40, label %81

81:                                               ; preds = %72
  store i8 1, ptr %68, align 4
  br label %flushbuffer.exit.i40

flushbuffer.exit.i40:                             ; preds = %81, %72, %65
  %82 = load ptr, ptr %66, align 8
  br label %83

83:                                               ; preds = %flushbuffer.exit.i40, %54
  %84 = phi ptr [ %82, %flushbuffer.exit.i40 ], [ %.pre.i35, %54 ]
  %85 = trunc i32 %.0 to i8
  %86 = getelementptr inbounds nuw i8, ptr %84, i64 1
  store ptr %86, ptr %3, align 8
  store i8 %85, ptr %84, align 1
  br label %dopr_outch.exit41

dopr_outch.exit41:                                ; preds = %61, %83
  %87 = load i32, ptr %2, align 4
  %88 = icmp sgt i32 %87, 0
  br i1 %88, label %89, label %91

89:                                               ; preds = %dopr_outch.exit41
  %90 = add nsw i32 %87, -1
  br label %.sink.split

91:                                               ; preds = %dopr_outch.exit41
  %92 = icmp slt i32 %87, 0
  br i1 %92, label %93, label %95

93:                                               ; preds = %91
  %94 = add nsw i32 %87, 1
  br label %.sink.split

.sink.split:                                      ; preds = %93, %89, %.thread44
  %.sink = phi i32 [ 0, %.thread44 ], [ %90, %89 ], [ %94, %93 ]
  store i32 %.sink, ptr %2, align 4
  br label %95

95:                                               ; preds = %.sink.split, %51, %91, %53
  ret void
}